target datalayout = "e-m:e-p270:32:32-p271:32:32-p272:64:64-i64:64-i128:128-f80:128-n8:16:32:64-S128"
target triple = "x86_64-unknown-linux-gnu"

%struct.BlockDirtyInfo = type { ptr, i64, i32, i8, i8, i8, i8, i8 }

@.str.1 = private unnamed_addr constant [5 x i8] c"name\00", align 1
@.str.94 = private unnamed_addr constant [6 x i8] c"count\00", align 1
@.str.95 = private unnamed_addr constant [12 x i8] c"granularity\00", align 1
@.str.96 = private unnamed_addr constant [10 x i8] c"recording\00", align 1
@.str.97 = private unnamed_addr constant [5 x i8] c"busy\00", align 1
@.str.98 = private unnamed_addr constant [11 x i8] c"persistent\00", align 1
@.str.99 = private unnamed_addr constant [13 x i8] c"inconsistent\00", align 1

; Function Attrs: nounwind sspstrong uwtable
define dso_local zeroext i1 @visit_type_BlockDirtyInfo_members(ptr noundef %v, ptr noundef %obj, ptr noundef %errp) #0 {
entry:
  %retval = alloca i1, align 1
  %v.addr = alloca ptr, align 8
  %obj.addr = alloca ptr, align 8
  %errp.addr = alloca ptr, align 8
  %has_name = alloca i8, align 1
  store ptr %v, ptr %v.addr, align 8
  store ptr %obj, ptr %obj.addr, align 8
  store ptr %errp, ptr %errp.addr, align 8
  %0 = load ptr, ptr %obj.addr, align 8
  %name = getelementptr inbounds %struct.BlockDirtyInfo, ptr %0, i32 0, i32 0
  %1 = load ptr, ptr %name, align 8
  %tobool = icmp ne ptr %1, null
  %lnot = xor i1 %tobool, true
  %lnot1 = xor i1 %lnot, true
  %frombool = zext i1 %lnot1 to i8
  store i8 %frombool, ptr %has_name, align 1
  %2 = load ptr, ptr %v.addr, align 8
  %call = call zeroext i1 @visit_optional(ptr noundef %2, ptr noundef @.str.1, ptr noundef %has_name)
  br i1 %call, label %if.then, label %if.end5

if.then:                                          ; preds = %entry
  %3 = load ptr, ptr %v.addr, align 8
  %4 = load ptr, ptr %obj.addr, align 8
  %name2 = getelementptr inbounds %struct.BlockDirtyInfo, ptr %4, i32 0, i32 0
  %5 = load ptr, ptr %errp.addr, align 8
  %call3 = call zeroext i1 @visit_type_str(ptr noundef %3, ptr noundef @.str.1, ptr noundef %name2, ptr noundef %5)
  br i1 %call3, label %if.end, label %if.then4

if.then4:                                         ; preds = %if.then
  store i1 false, ptr %retval, align 1
  br label %return

if.end:                                           ; preds = %if.then
  br label %if.end5

if.end5:                                          ; preds = %if.end, %entry
  %6 = load ptr, ptr %v.addr, align 8
  %7 = load ptr, ptr %obj.addr, align 8
  %count = getelementptr inbounds %struct.BlockDirtyInfo, ptr %7, i32 0, i32 1
  %8 = load ptr, ptr %errp.addr, align 8
  %call6 = call zeroext i1 @visit_type_int(ptr noundef %6, ptr noundef @.str.94, ptr noundef %count, ptr noundef %8)
  br i1 %call6, label %if.end8, label %if.then7

if.then7:                                         ; preds = %if.end5
  store i1 false, ptr %retval, align 1
  br label %return

if.end8:                                          ; preds = %if.end5
  %9 = load ptr, ptr %v.addr, align 8
  %10 = load ptr, ptr %obj.addr, align 8
  %granularity = getelementptr inbounds %struct.BlockDirtyInfo, ptr %10, i32 0, i32 2
  %11 = load ptr, ptr %errp.addr, align 8
  %call9 = call zeroext i1 @visit_type_uint32(ptr noundef %9, ptr noundef @.str.95, ptr noundef %granularity, ptr noundef %11)
  br i1 %call9, label %if.end11, label %if.then10

if.then10:                                        ; preds = %if.end8
  store i1 false, ptr %retval, align 1
  br label %return

if.end11:                                         ; preds = %if.end8
  %12 = load ptr, ptr %v.addr, align 8
  %13 = load ptr, ptr %obj.addr, align 8
  %recording = getelementptr inbounds %struct.BlockDirtyInfo, ptr %13, i32 0, i32 3
  %14 = load ptr, ptr %errp.addr, align 8
  %call12 = call zeroext i1 @visit_type_bool(ptr noundef %12, ptr noundef @.str.96, ptr noundef %recording, ptr noundef %14)
  br i1 %call12, label %if.end14, label %if.then13

if.then13:                                        ; preds = %if.end11
  store i1 false, ptr %retval, align 1
  br label %return

if.end14:                                         ; preds = %if.end11
  %15 = load ptr, ptr %v.addr, align 8
  %16 = load ptr, ptr %obj.addr, align 8
  %busy = getelementptr inbounds %struct.BlockDirtyInfo, ptr %16, i32 0, i32 4
  %17 = load ptr, ptr %errp.addr, align 8
  %call15 = call zeroext i1 @visit_type_bool(ptr noundef %15, ptr noundef @.str.97, ptr noundef %busy, ptr noundef %17)
  br i1 %call15, label %if.end17, label %if.then16

if.then16:                                        ; preds = %if.end14
  store i1 false, ptr %retval, align 1
  br label %return

if.end17:                                         ; preds = %if.end14
  %18 = load ptr, ptr %v.addr, align 8
  %19 = load ptr, ptr %obj.addr, align 8
  %persistent = getelementptr inbounds %struct.BlockDirtyInfo, ptr %19, i32 0, i32 5
  %20 = load ptr, ptr %errp.addr, align 8
  %call18 = call zeroext i1 @visit_type_bool(ptr noundef %18, ptr noundef @.str.98, ptr noundef %persistent, ptr noundef %20)
  br i1 %call18, label %if.end20, label %if.then19

if.then19:                                        ; preds = %if.end17
  store i1 false, ptr %retval, align 1
  br label %return

if.end20:                                         ; preds = %if.end17
  %21 = load ptr, ptr %v.addr, align 8
  %22 = load ptr, ptr %obj.addr, align 8
  %has_inconsistent = getelementptr inbounds %struct.BlockDirtyInfo, ptr %22, i32 0, i32 6
  %call21 = call zeroext i1 @visit_optional(ptr noundef %21, ptr noundef @.str.99, ptr noundef %has_inconsistent)
  br i1 %call21, label %if.then22, label %if.end26

if.then22:                                        ; preds = %if.end20
  %23 = load ptr, ptr %v.addr, align 8
  %24 = load ptr, ptr %obj.addr, align 8
  %inconsistent = getelementptr inbounds %struct.BlockDirtyInfo, ptr %24, i32 0, i32 7
  %25 = load ptr, ptr %errp.addr, align 8
  %call23 = call zeroext i1 @visit_type_bool(ptr noundef %23, ptr noundef @.str.99, ptr noundef %inconsistent, ptr noundef %25)
  br i1 %call23, label %if.end25, label %if.then24

if.then24:                                        ; preds = %if.then22
  store i1 false, ptr %retval, align 1
  br label %return

if.end25:                                         ; preds = %if.then22
  br label %if.end26

if.end26:                                         ; preds = %if.end25, %if.end20
  store i1 true, ptr %retval, align 1
  br label %return

return:                                           ; preds = %if.end26, %if.then24, %if.then19, %if.then16, %if.then13, %if.then10, %if.then7, %if.then4
  %26 = load i1, ptr %retval, align 1
  ret i1 %26
}