; Function Attrs: nounwind sspstrong uwtable
define dso_local noundef zeroext i1 @visit_type_BlockDirtyInfo_members(ptr noundef %v, ptr noundef %obj, ptr noundef %errp) local_unnamed_addr #0 {
entry:
  %has_name = alloca i8, align 1
  %0 = load ptr, ptr %obj, align 8
  %tobool = icmp ne ptr %0, null
  %frombool = zext i1 %tobool to i8
  store i8 %frombool, ptr %has_name, align 1
  %call = call zeroext i1 @visit_optional(ptr noundef %v, ptr noundef nonnull @.str.1, ptr noundef nonnull %has_name) #5
  br i1 %call, label %if.then, label %if.end5

if.then:                                          ; preds = %entry
  %call3 = call zeroext i1 @visit_type_str(ptr noundef %v, ptr noundef nonnull @.str.1, ptr noundef nonnull %obj, ptr noundef %errp) #5
  br i1 %call3, label %if.end5, label %return

if.end5:                                          ; preds = %if.then, %entry
  %count = getelementptr inbounds nuw i8, ptr %obj, i64 8
  %call6 = call zeroext i1 @visit_type_int(ptr noundef %v, ptr noundef nonnull @.str.94, ptr noundef nonnull %count, ptr noundef %errp) #5
  br i1 %call6, label %if.end8, label %return

if.end8:                                          ; preds = %if.end5
  %granularity = getelementptr inbounds nuw i8, ptr %obj, i64 16
  %call9 = call zeroext i1 @visit_type_uint32(ptr noundef %v, ptr noundef nonnull @.str.95, ptr noundef nonnull %granularity, ptr noundef %errp) #5
  br i1 %call9, label %if.end11, label %return

if.end11:                                         ; preds = %if.end8
  %recording = getelementptr inbounds nuw i8, ptr %obj, i64 20
  %call12 = call zeroext i1 @visit_type_bool(ptr noundef %v, ptr noundef nonnull @.str.96, ptr noundef nonnull %recording, ptr noundef %errp) #5
  br i1 %call12, label %if.end14, label %return

if.end14:                                         ; preds = %if.end11
  %busy = getelementptr inbounds nuw i8, ptr %obj, i64 21
  %call15 = call zeroext i1 @visit_type_bool(ptr noundef %v, ptr noundef nonnull @.str.97, ptr noundef nonnull %busy, ptr noundef %errp) #5
  br i1 %call15, label %if.end17, label %return

if.end17:                                         ; preds = %if.end14
  %persistent = getelementptr inbounds nuw i8, ptr %obj, i64 22
  %call18 = call zeroext i1 @visit_type_bool(ptr noundef %v, ptr noundef nonnull @.str.98, ptr noundef nonnull %persistent, ptr noundef %errp) #5
  br i1 %call18, label %if.end20, label %return

if.end20:                                         ; preds = %if.end17
  %has_inconsistent = getelementptr inbounds nuw i8, ptr %obj, i64 23
  %call21 = call zeroext i1 @visit_optional(ptr noundef %v, ptr noundef nonnull @.str.99, ptr noundef nonnull %has_inconsistent) #5
  br i1 %call21, label %if.then22, label %if.end26

if.then22:                                        ; preds = %if.end20
  %inconsistent = getelementptr inbounds nuw i8, ptr %obj, i64 24
  %call23 = call zeroext i1 @visit_type_bool(ptr noundef %v, ptr noundef nonnull @.str.99, ptr noundef nonnull %inconsistent, ptr noundef %errp) #5
  br i1 %call23, label %if.end26, label %return

if.end26:                                         ; preds = %if.then22, %if.end20
  br label %return

return:                                           ; preds = %if.then22, %if.end17, %if.end14, %if.end11, %if.end8, %if.end5, %if.then, %if.end26
  %retval.0 = phi i1 [ true, %if.end26 ], [ false, %if.then ], [ false, %if.end5 ], [ false, %if.end8 ], [ false, %if.end11 ], [ false, %if.end14 ], [ false, %if.end17 ], [ false, %if.then22 ]
  ret i1 %retval.0
}